target datalayout = "e-m:e-p270:32:32-p271:32:32-p272:64:64-i64:64-i128:128-f80:128-n8:16:32:64-S128"
target triple = "x86_64-pc-linux-gnu"

%struct.H5HF_indirect_t = type { %struct.H5C_cache_entry_t, i64, ptr, ptr, ptr, i32, i64, i64, i32, i32, i32, i32, ptr, i8, i64, ptr, ptr }
%struct.H5C_cache_entry_t = type { ptr, i64, i64, ptr, i8, ptr, i8, i8, i8, i8, i32, i8, i8, i8, i8, i8, i32, ptr, i32, i32, i32, i32, i32, i8, i8, ptr, ptr, ptr, ptr, ptr, ptr, i8, i32, i8, i64, ptr, i64, i64, i32, i8, i32, i32, i8, ptr, ptr, ptr }
%struct.H5HF_hdr_t = type { %struct.H5C_cache_entry_t, i32, i32, i8, i8, i8, i8, %struct.H5HF_dtable_t, i64, i64, i32, i64, i64, %struct.H5O_pline_t, i64, i32, i64, i64, i64, i64, i64, i64, i64, i64, i64, i64, i64, i32, ptr, i64, i8, i8, i8, ptr, i32, ptr, %struct.H5HF_block_iter_t, ptr, i64, i8, i8, i64, i8, i8, i8, i8 }
%struct.H5HF_dtable_t = type { %struct.H5HF_dtable_cparam_t, i64, i32, i32, i32, i32, i32, i32, i32, i64, ptr, ptr, ptr, ptr }
%struct.H5HF_dtable_cparam_t = type { i32, i64, i64, i32, i32 }
%struct.H5O_pline_t = type { %struct.H5O_shared_t, i32, i64, i64, ptr }
%struct.H5O_shared_t = type { i32, ptr, i32, %union.anon }
%union.anon = type { %struct.H5O_mesg_loc_t }
%struct.H5O_mesg_loc_t = type { i32, i64 }
%struct.H5HF_block_iter_t = type { i8, ptr }
%struct.H5HF_indirect_filt_ent_t = type { i64, i32 }
%struct.H5HF_indirect_ent_t = type { i64 }

@H5HF_init_g = external global i8, align 1
@H5_libterm_g = external global i8, align 1
@.str.4 = private unnamed_addr constant [104 x i8] c"generated/home/dtcxzyw/WorkSpace/Projects/compilers/llvm-opt-benchmark/bench/hdf5/hdf5/src/H5HFiblock.c\00", align 1
@H5E_HEAP_g = external global i64, align 8
@__func__.H5HF__iblock_dirty = private unnamed_addr constant [19 x i8] c"H5HF__iblock_dirty\00", align 1
@H5E_CANTMARKDIRTY_g = external global i64, align 8
@.str.8 = private unnamed_addr constant [52 x i8] c"unable to mark fractal heap indirect block as dirty\00", align 1
@H5E_CANTDIRTY_g = external global i64, align 8
@.str.19 = private unnamed_addr constant [35 x i8] c"can't mark indirect block as dirty\00", align 1
@H5E_CANTINC_g = external global i64, align 8
@.str.31 = private unnamed_addr constant [57 x i8] c"can't increment reference count on shared indirect block\00", align 1
@__func__.H5HF__man_iblock_attach = private unnamed_addr constant [24 x i8] c"H5HF__man_iblock_attach\00", align 1

; Function Attrs: nounwind uwtable
define i32 @H5HF__iblock_dirty(ptr noundef %0) #0 {
  %2 = alloca ptr, align 8
  %3 = alloca i32, align 4
  %4 = alloca i8, align 1
  store ptr %0, ptr %2, align 8, !tbaa !3
  call void @llvm.lifetime.start.p0(i64 4, ptr %3) #7
  store i32 0, ptr %3, align 4, !tbaa !8
  call void @llvm.lifetime.start.p0(i64 1, ptr %4) #7
  store i8 0, ptr %4, align 1, !tbaa !10
  %5 = load i8, ptr @H5HF_init_g, align 1, !tbaa !10, !range !12, !noundef !13
  %6 = trunc i8 %5 to i1
  br i1 %6, label %11, label %7

7:                                                ; preds = %1
  %8 = load i8, ptr @H5_libterm_g, align 1, !tbaa !10, !range !12, !noundef !13
  %9 = trunc i8 %8 to i1
  %10 = xor i1 %9, true
  br label %11

11:                                               ; preds = %7, %1
  %12 = phi i1 [ true, %1 ], [ %10, %7 ]
  %13 = xor i1 %12, true
  %14 = xor i1 %13, true
  %15 = zext i1 %14 to i32
  %16 = sext i32 %15 to i64
  %17 = call i64 @llvm.expect.i64(i64 %16, i64 1)
  %18 = icmp ne i64 %17, 0
  br i1 %18, label %19, label %44

19:                                               ; preds = %11
  %20 = load ptr, ptr %2, align 8, !tbaa !3
  %21 = call i32 @H5AC_mark_entry_dirty(ptr noundef %20)
  %22 = icmp slt i32 %21, 0
  br i1 %22, label %23, label %42

23:                                               ; preds = %19
  br label %24

24:                                               ; preds = %23
  br label %25

25:                                               ; preds = %24
  br label %26

26:                                               ; preds = %25
  %27 = load i64, ptr @H5E_HEAP_g, align 8, !tbaa !28
  %28 = load i64, ptr @H5E_CANTMARKDIRTY_g, align 8, !tbaa !28
  %29 = call i32 (ptr, ptr, i32, i64, i64, ptr, ...) @H5E_printf_stack(ptr noundef @.str.4, ptr noundef @__func__.H5HF__iblock_dirty, i32 noundef 302, i64 noundef %27, i64 noundef %28, ptr noundef @.str.8)
  br label %30

30:                                               ; preds = %26
  br label %31

31:                                               ; preds = %30
  store i8 1, ptr %4, align 1, !tbaa !10
  %32 = load i8, ptr %4, align 1, !tbaa !10, !range !12, !noundef !13
  %33 = trunc i8 %32 to i1
  %34 = zext i1 %33 to i8
  store i8 %34, ptr %4, align 1, !tbaa !10
  br label %35

35:                                               ; preds = %31
  br label %36

36:                                               ; preds = %35
  br label %37

37:                                               ; preds = %36
  store i32 -1, ptr %3, align 4, !tbaa !8
  br label %43

38:                                               ; No predecessors!
  br label %39

39:                                               ; preds = %38
  br label %40

40:                                               ; preds = %39
  br label %41

41:                                               ; preds = %40
  br label %42

42:                                               ; preds = %41, %19
  br label %43

43:                                               ; preds = %42, %37
  br label %44

44:                                               ; preds = %43, %11
  %45 = load i32, ptr %3, align 4, !tbaa !8
  call void @llvm.lifetime.end.p0(i64 1, ptr %4) #7
  call void @llvm.lifetime.end.p0(i64 4, ptr %3) #7
  ret i32 %45
}

; Function Attrs: nounwind uwtable
define i32 @H5HF__man_iblock_attach(ptr noundef %0, i32 noundef %1, i64 noundef %2) #0 {
  %4 = alloca ptr, align 8
  %5 = alloca i32, align 4
  %6 = alloca i64, align 8
  %7 = alloca i32, align 4
  %8 = alloca i8, align 1
  %9 = alloca i32, align 4
  store ptr %0, ptr %4, align 8, !tbaa !3
  store i32 %1, ptr %5, align 4, !tbaa !8
  store i64 %2, ptr %6, align 8, !tbaa !28
  call void @llvm.lifetime.start.p0(i64 4, ptr %7) #7
  store i32 0, ptr %7, align 4, !tbaa !8
  call void @llvm.lifetime.start.p0(i64 1, ptr %8) #7
  store i8 0, ptr %8, align 1, !tbaa !10
  %10 = load i8, ptr @H5HF_init_g, align 1, !tbaa !10, !range !12, !noundef !13
  %11 = trunc i8 %10 to i1
  br i1 %11, label %16, label %12

12:                                               ; preds = %3
  %13 = load i8, ptr @H5_libterm_g, align 1, !tbaa !10, !range !12, !noundef !13
  %14 = trunc i8 %13 to i1
  %15 = xor i1 %14, true
  br label %16

16:                                               ; preds = %12, %3
  %17 = phi i1 [ true, %3 ], [ %15, %12 ]
  %18 = xor i1 %17, true
  %19 = xor i1 %18, true
  %20 = zext i1 %19 to i32
  %21 = sext i32 %20 to i64
  %22 = call i64 @llvm.expect.i64(i64 %21, i64 1)
  %23 = icmp ne i64 %22, 0
  br i1 %23, label %24, label %138

24:                                               ; preds = %16
  %25 = load ptr, ptr %4, align 8, !tbaa !3
  %26 = call i32 @H5HF__iblock_incr(ptr noundef %25)
  %27 = icmp slt i32 %26, 0
  br i1 %27, label %28, label %47

28:                                               ; preds = %24
  br label %29

29:                                               ; preds = %28
  br label %30

30:                                               ; preds = %29
  br label %31

31:                                               ; preds = %30
  %32 = load i64, ptr @H5E_HEAP_g, align 8, !tbaa !28
  %33 = load i64, ptr @H5E_CANTINC_g, align 8, !tbaa !28
  %34 = call i32 (ptr, ptr, i32, i64, i64, ptr, ...) @H5E_printf_stack(ptr noundef @.str.4, ptr noundef @__func__.H5HF__man_iblock_attach, i32 noundef 1264, i64 noundef %32, i64 noundef %33, ptr noundef @.str.31)
  br label %35

35:                                               ; preds = %31
  br label %36

36:                                               ; preds = %35
  store i8 1, ptr %8, align 1, !tbaa !10
  %37 = load i8, ptr %8, align 1, !tbaa !10, !range !12, !noundef !13
  %38 = trunc i8 %37 to i1
  %39 = zext i1 %38 to i8
  store i8 %39, ptr %8, align 1, !tbaa !10
  br label %40

40:                                               ; preds = %36
  br label %41

41:                                               ; preds = %40
  br label %42

42:                                               ; preds = %41
  store i32 -1, ptr %7, align 4, !tbaa !8
  br label %137

43:                                               ; No predecessors!
  br label %44

44:                                               ; preds = %43
  br label %45

45:                                               ; preds = %44
  br label %46

46:                                               ; preds = %45
  br label %47

47:                                               ; preds = %46, %24
  %48 = load i64, ptr %6, align 8, !tbaa !28
  %49 = load ptr, ptr %4, align 8, !tbaa !3
  %50 = getelementptr inbounds nuw %struct.H5HF_indirect_t, ptr %49, i32 0, i32 15
  %51 = load ptr, ptr %50, align 8, !tbaa !50
  %52 = load i32, ptr %5, align 4, !tbaa !8
  %53 = zext i32 %52 to i64
  %54 = getelementptr inbounds nuw %struct.H5HF_indirect_ent_t, ptr %51, i64 %53
  %55 = getelementptr inbounds nuw %struct.H5HF_indirect_ent_t, ptr %54, i32 0, i32 0
  store i64 %48, ptr %55, align 8, !tbaa !83
  %56 = load ptr, ptr %4, align 8, !tbaa !3
  %57 = getelementptr inbounds nuw %struct.H5HF_indirect_t, ptr %56, i32 0, i32 2
  %58 = load ptr, ptr %57, align 8, !tbaa !31
  %59 = getelementptr inbounds nuw %struct.H5HF_hdr_t, ptr %58, i32 0, i32 2
  %60 = load i32, ptr %59, align 4, !tbaa !64
  %61 = icmp ugt i32 %60, 0
  br i1 %61, label %62, label %99

62:                                               ; preds = %47
  call void @llvm.lifetime.start.p0(i64 4, ptr %9) #7
  %63 = load i32, ptr %5, align 4, !tbaa !8
  %64 = load ptr, ptr %4, align 8, !tbaa !3
  %65 = getelementptr inbounds nuw %struct.H5HF_indirect_t, ptr %64, i32 0, i32 2
  %66 = load ptr, ptr %65, align 8, !tbaa !31
  %67 = getelementptr inbounds nuw %struct.H5HF_hdr_t, ptr %66, i32 0, i32 7
  %68 = getelementptr inbounds nuw %struct.H5HF_dtable_t, ptr %67, i32 0, i32 0
  %69 = getelementptr inbounds nuw %struct.H5HF_dtable_cparam_t, ptr %68, i32 0, i32 0
  %70 = load i32, ptr %69, align 8, !tbaa !44
  %71 = udiv i32 %63, %70
  store i32 %71, ptr %9, align 4, !tbaa !8
  %72 = load i32, ptr %9, align 4, !tbaa !8
  %73 = load ptr, ptr %4, align 8, !tbaa !3
  %74 = getelementptr inbounds nuw %struct.H5HF_indirect_t, ptr %73, i32 0, i32 2
  %75 = load ptr, ptr %74, align 8, !tbaa !31
  %76 = getelementptr inbounds nuw %struct.H5HF_hdr_t, ptr %75, i32 0, i32 7
  %77 = getelementptr inbounds nuw %struct.H5HF_dtable_t, ptr %76, i32 0, i32 4
  %78 = load i32, ptr %77, align 8, !tbaa !32
  %79 = icmp ult i32 %72, %78
  br i1 %79, label %80, label %98

80:                                               ; preds = %62
  %81 = load ptr, ptr %4, align 8, !tbaa !3
  %82 = getelementptr inbounds nuw %struct.H5HF_indirect_t, ptr %81, i32 0, i32 2
  %83 = load ptr, ptr %82, align 8, !tbaa !31
  %84 = getelementptr inbounds nuw %struct.H5HF_hdr_t, ptr %83, i32 0, i32 7
  %85 = getelementptr inbounds nuw %struct.H5HF_dtable_t, ptr %84, i32 0, i32 10
  %86 = load ptr, ptr %85, align 8, !tbaa !87
  %87 = load i32, ptr %9, align 4, !tbaa !8
  %88 = zext i32 %87 to i64
  %89 = getelementptr inbounds nuw i64, ptr %86, i64 %88
  %90 = load i64, ptr %89, align 8, !tbaa !28
  %91 = load ptr, ptr %4, align 8, !tbaa !3
  %92 = getelementptr inbounds nuw %struct.H5HF_indirect_t, ptr %91, i32 0, i32 16
  %93 = load ptr, ptr %92, align 8, !tbaa !51
  %94 = load i32, ptr %5, align 4, !tbaa !8
  %95 = zext i32 %94 to i64
  %96 = getelementptr inbounds nuw %struct.H5HF_indirect_filt_ent_t, ptr %93, i64 %95
  %97 = getelementptr inbounds nuw %struct.H5HF_indirect_filt_ent_t, ptr %96, i32 0, i32 0
  store i64 %90, ptr %97, align 8, !tbaa !66
  br label %98

98:                                               ; preds = %80, %62
  call void @llvm.lifetime.end.p0(i64 4, ptr %9) #7
  br label %99

99:                                               ; preds = %98, %47
  %100 = load i32, ptr %5, align 4, !tbaa !8
  %101 = load ptr, ptr %4, align 8, !tbaa !3
  %102 = getelementptr inbounds nuw %struct.H5HF_indirect_t, ptr %101, i32 0, i32 11
  %103 = load i32, ptr %102, align 4, !tbaa !90
  %104 = icmp ugt i32 %100, %103
  br i1 %104, label %105, label %109

105:                                              ; preds = %99
  %106 = load i32, ptr %5, align 4, !tbaa !8
  %107 = load ptr, ptr %4, align 8, !tbaa !3
  %108 = getelementptr inbounds nuw %struct.H5HF_indirect_t, ptr %107, i32 0, i32 11
  store i32 %106, ptr %108, align 4, !tbaa !90
  br label %109

109:                                              ; preds = %105, %99
  %110 = load ptr, ptr %4, align 8, !tbaa !3
  %111 = getelementptr inbounds nuw %struct.H5HF_indirect_t, ptr %110, i32 0, i32 10
  %112 = load i32, ptr %111, align 8, !tbaa !89
  %113 = add i32 %112, 1
  store i32 %113, ptr %111, align 8, !tbaa !89
  %114 = load ptr, ptr %4, align 8, !tbaa !3
  %115 = call i32 @H5HF__iblock_dirty(ptr noundef %114)
  %116 = icmp slt i32 %115, 0
  br i1 %116, label %117, label %136

117:                                              ; preds = %109
  br label %118

118:                                              ; preds = %117
  br label %119

119:                                              ; preds = %118
  br label %120

120:                                              ; preds = %119
  %121 = load i64, ptr @H5E_HEAP_g, align 8, !tbaa !28
  %122 = load i64, ptr @H5E_CANTDIRTY_g, align 8, !tbaa !28
  %123 = call i32 (ptr, ptr, i32, i64, i64, ptr, ...) @H5E_printf_stack(ptr noundef @.str.4, ptr noundef @__func__.H5HF__man_iblock_attach, i32 noundef 1293, i64 noundef %121, i64 noundef %122, ptr noundef @.str.19)
  br label %124

124:                                              ; preds = %120
  br label %125

125:                                              ; preds = %124
  store i8 1, ptr %8, align 1, !tbaa !10
  %126 = load i8, ptr %8, align 1, !tbaa !10, !range !12, !noundef !13
  %127 = trunc i8 %126 to i1
  %128 = zext i1 %127 to i8
  store i8 %128, ptr %8, align 1, !tbaa !10
  br label %129

129:                                              ; preds = %125
  br label %130

130:                                              ; preds = %129
  br label %131

131:                                              ; preds = %130
  store i32 -1, ptr %7, align 4, !tbaa !8
  br label %137

132:                                              ; No predecessors!
  br label %133

133:                                              ; preds = %132
  br label %134

134:                                              ; preds = %133
  br label %135

135:                                              ; preds = %134
  br label %136

136:                                              ; preds = %135, %109
  br label %137

137:                                              ; preds = %136, %131, %42
  br label %138

138:                                              ; preds = %137, %16
  %139 = load i32, ptr %7, align 4, !tbaa !8
  call void @llvm.lifetime.end.p0(i64 1, ptr %8) #7
  call void @llvm.lifetime.end.p0(i64 4, ptr %7) #7
  ret i32 %139
}