; Function Attrs: nounwind uwtable
define range(i32 -1, 1) i32 @H5HF__man_iblock_attach(ptr noundef %0, i32 noundef %1, i64 noundef %2) local_unnamed_addr #0 {
  %4 = load i8, ptr @H5HF_init_g, align 1, !tbaa !3, !range !7, !noundef !8
  %5 = trunc nuw i8 %4 to i1
  %6 = load i8, ptr @H5_libterm_g, align 1, !range !7
  %7 = trunc nuw i8 %6 to i1
  %8 = xor i1 %7, true
  %9 = select i1 %5, i1 true, i1 %8
  br i1 %9, label %10, label %H5HF__iblock_dirty.exit.thread, !prof !9

10:                                               ; preds = %3
  %11 = tail call i32 @H5HF__iblock_incr(ptr noundef %0)
  %12 = icmp slt i32 %11, 0
  br i1 %12, label %13, label %17

13:                                               ; preds = %10
  %14 = load i64, ptr @H5E_HEAP_g, align 8, !tbaa !48
  %15 = load i64, ptr @H5E_CANTINC_g, align 8, !tbaa !48
  %16 = tail call i32 (ptr, ptr, i32, i64, i64, ptr, ...) @H5E_printf_stack(ptr noundef nonnull @.str.4, ptr noundef nonnull @__func__.H5HF__man_iblock_attach, i32 noundef 1264, i64 noundef %14, i64 noundef %15, ptr noundef nonnull @.str.31) #6
  br label %H5HF__iblock_dirty.exit.thread

17:                                               ; preds = %10
  %18 = getelementptr inbounds nuw i8, ptr %0, i64 344
  %19 = load ptr, ptr %18, align 8, !tbaa !50
  %20 = zext i32 %1 to i64
  %21 = getelementptr inbounds nuw %struct.H5HF_indirect_ent_t, ptr %19, i64 %20
  store i64 %2, ptr %21, align 8, !tbaa !92
  %22 = getelementptr inbounds nuw i8, ptr %0, i64 256
  %23 = load ptr, ptr %22, align 8, !tbaa !29
  %24 = getelementptr inbounds nuw i8, ptr %23, i64 252
  %25 = load i32, ptr %24, align 4, !tbaa !74
  %.not = icmp eq i32 %25, 0
  br i1 %.not, label %42, label %26

26:                                               ; preds = %17
  %27 = getelementptr inbounds nuw i8, ptr %23, i64 264
  %28 = load i32, ptr %27, align 8, !tbaa !42
  %29 = udiv i32 %1, %28
  %30 = getelementptr inbounds nuw i8, ptr %23, i64 312
  %31 = load i32, ptr %30, align 8, !tbaa !30
  %32 = icmp ult i32 %29, %31
  br i1 %32, label %33, label %42

33:                                               ; preds = %26
  %34 = getelementptr inbounds nuw i8, ptr %23, i64 344
  %35 = load ptr, ptr %34, align 8, !tbaa !94
  %36 = zext i32 %29 to i64
  %37 = getelementptr inbounds nuw i64, ptr %35, i64 %36
  %38 = load i64, ptr %37, align 8, !tbaa !48
  %39 = getelementptr inbounds nuw i8, ptr %0, i64 352
  %40 = load ptr, ptr %39, align 8, !tbaa !51
  %41 = getelementptr inbounds nuw %struct.H5HF_indirect_filt_ent_t, ptr %40, i64 %20
  store i64 %38, ptr %41, align 8, !tbaa !76
  br label %42

42:                                               ; preds = %26, %33, %17
  %43 = getelementptr inbounds nuw i8, ptr %0, i64 316
  %44 = load i32, ptr %43, align 4, !tbaa !97
  %45 = icmp ugt i32 %1, %44
  br i1 %45, label %46, label %47

46:                                               ; preds = %42
  store i32 %1, ptr %43, align 4, !tbaa !97
  br label %47

47:                                               ; preds = %46, %42
  %48 = getelementptr inbounds nuw i8, ptr %0, i64 312
  %49 = load i32, ptr %48, align 8, !tbaa !96
  %50 = add i32 %49, 1
  store i32 %50, ptr %48, align 8, !tbaa !96
  %51 = load i8, ptr @H5HF_init_g, align 1, !tbaa !3, !range !7, !noundef !8
  %52 = trunc nuw i8 %51 to i1
  %53 = load i8, ptr @H5_libterm_g, align 1, !range !7
  %54 = trunc nuw i8 %53 to i1
  %55 = xor i1 %54, true
  %56 = select i1 %52, i1 true, i1 %55
  br i1 %56, label %57, label %H5HF__iblock_dirty.exit.thread, !prof !9

57:                                               ; preds = %47
  %58 = tail call i32 @H5AC_mark_entry_dirty(ptr noundef nonnull %0) #6
  %59 = icmp slt i32 %58, 0
  br i1 %59, label %60, label %H5HF__iblock_dirty.exit.thread

60:                                               ; preds = %57
  %61 = load i64, ptr @H5E_HEAP_g, align 8, !tbaa !48
  %62 = load i64, ptr @H5E_CANTMARKDIRTY_g, align 8, !tbaa !48
  %63 = tail call i32 (ptr, ptr, i32, i64, i64, ptr, ...) @H5E_printf_stack(ptr noundef nonnull @.str.4, ptr noundef nonnull @__func__.H5HF__iblock_dirty, i32 noundef 302, i64 noundef %61, i64 noundef %62, ptr noundef nonnull @.str.8) #6
  %64 = load i64, ptr @H5E_HEAP_g, align 8, !tbaa !48
  %65 = load i64, ptr @H5E_CANTDIRTY_g, align 8, !tbaa !48
  %66 = tail call i32 (ptr, ptr, i32, i64, i64, ptr, ...) @H5E_printf_stack(ptr noundef nonnull @.str.4, ptr noundef nonnull @__func__.H5HF__man_iblock_attach, i32 noundef 1293, i64 noundef %64, i64 noundef %65, ptr noundef nonnull @.str.19) #6
  br label %H5HF__iblock_dirty.exit.thread

H5HF__iblock_dirty.exit.thread:                   ; preds = %47, %57, %13, %60, %3
  %.0 = phi i32 [ -1, %13 ], [ -1, %60 ], [ 0, %3 ], [ 0, %57 ], [ 0, %47 ]
  ret i32 %.0
}